target datalayout = "e-m:e-p270:32:32-p271:32:32-p272:64:64-i64:64-i128:128-f80:128-n8:16:32:64-S128"
target triple = "x86_64-pc-linux-gnu"

%struct.FmgrInfo = type { ptr, i32, i16, i8, i8, i8, ptr, ptr, ptr }
%struct.Trigger = type { i32, ptr, i32, i16, i8, i8, i8, i32, i32, i32, i8, i8, i16, i16, ptr, ptr, ptr, ptr, ptr }
%struct.TriggerData = type { i32, i32, ptr, ptr, ptr, ptr, ptr, ptr, ptr, ptr, ptr }
%union.anon.2 = type { %struct.FunctionCallInfoBaseData }
%struct.FunctionCallInfoBaseData = type { ptr, ptr, ptr, i32, i8, i16, [0 x %struct.NullableDatum] }
%struct.NullableDatum = type { i64, i8 }
%struct.PgStat_FunctionCallUsage = type { ptr, %struct.instr_time, %struct.instr_time, %struct.instr_time }
%struct.instr_time = type { i64 }
%struct.__jmp_buf_tag = type { [8 x i64], i32, %struct.__sigset_t }
%struct.__sigset_t = type { [16 x i64] }
%struct.Instrumentation = type { i8, i8, i8, i8, i8, %struct.instr_time, %struct.instr_time, double, double, %struct.BufferUsage, %struct.WalUsage, double, double, double, double, double, double, double, %struct.BufferUsage, %struct.WalUsage }
%struct.BufferUsage = type { i64, i64, i64, i64, i64, i64, i64, i64, i64, i64, %struct.instr_time, %struct.instr_time, %struct.instr_time, %struct.instr_time, %struct.instr_time, %struct.instr_time }
%struct.WalUsage = type { i64, i64, i64, i64 }

@.str.2 = private unnamed_addr constant [10 x i8] c"trigger.c\00", align 1
@CurrentMemoryContext = external global ptr, align 8
@MyTriggerDepth = internal global i32 0, align 4
@PG_exception_stack = external global ptr, align 8
@error_context_stack = external global ptr, align 8
@.str.73 = private unnamed_addr constant [40 x i8] c"trigger function %u returned null value\00", align 1
@__func__.ExecCallTriggerFunc = private unnamed_addr constant [20 x i8] c"ExecCallTriggerFunc\00", align 1

; Function Attrs: inlinehint nounwind uwtable
define internal ptr @DatumGetPointer(i64 noundef %0) #7 {
  %2 = alloca i64, align 8
  store i64 %0, ptr %2, align 8
  %3 = load i64, ptr %2, align 8
  %4 = inttoptr i64 %3 to ptr
  ret ptr %4
}

; Function Attrs: inlinehint nounwind uwtable
define internal ptr @MemoryContextSwitchTo(ptr noundef %0) #7 {
  %2 = alloca ptr, align 8
  %3 = alloca ptr, align 8
  store ptr %0, ptr %2, align 8
  call void @llvm.lifetime.start.p0(i64 8, ptr %3) #12
  %4 = load ptr, ptr @CurrentMemoryContext, align 8
  store ptr %4, ptr %3, align 8
  %5 = load ptr, ptr %2, align 8
  store ptr %5, ptr @CurrentMemoryContext, align 8
  %6 = load ptr, ptr %3, align 8
  call void @llvm.lifetime.end.p0(i64 8, ptr %3) #12
  ret ptr %6
}

; Function Attrs: nounwind uwtable
define internal ptr @ExecCallTriggerFunc(ptr noundef %0, i32 noundef %1, ptr noundef %2, ptr noundef %3, ptr noundef %4) #0 {
  %6 = alloca ptr, align 8
  %7 = alloca i32, align 4
  %8 = alloca ptr, align 8
  %9 = alloca ptr, align 8
  %10 = alloca ptr, align 8
  %11 = alloca %union.anon.2, align 8
  %12 = alloca ptr, align 8
  %13 = alloca %struct.PgStat_FunctionCallUsage, align 8
  %14 = alloca i64, align 8
  %15 = alloca ptr, align 8
  %16 = alloca ptr, align 8
  %17 = alloca ptr, align 8
  %18 = alloca [1 x %struct.__jmp_buf_tag], align 16
  %19 = alloca i8, align 1
  store ptr %0, ptr %6, align 8
  store i32 %1, ptr %7, align 4
  store ptr %2, ptr %8, align 8
  store ptr %3, ptr %9, align 8
  store ptr %4, ptr %10, align 8
  call void @llvm.lifetime.start.p0(i64 32, ptr %11) #12
  call void @llvm.lifetime.start.p0(i64 8, ptr %12) #12
  store ptr %11, ptr %12, align 8
  call void @llvm.lifetime.start.p0(i64 32, ptr %13) #12
  call void @llvm.lifetime.start.p0(i64 8, ptr %14) #12
  call void @llvm.lifetime.start.p0(i64 8, ptr %15) #12
  %20 = load i32, ptr %7, align 4
  %21 = load ptr, ptr %8, align 8
  %22 = sext i32 %20 to i64
  %23 = getelementptr inbounds %struct.FmgrInfo, ptr %21, i64 %22
  store ptr %23, ptr %8, align 8
  %24 = load ptr, ptr %8, align 8
  %25 = getelementptr inbounds nuw %struct.FmgrInfo, ptr %24, i32 0, i32 1
  %26 = load i32, ptr %25, align 8
  %27 = icmp eq i32 %26, 0
  br i1 %27, label %28, label %35

28:                                               ; preds = %5
  %29 = load ptr, ptr %6, align 8
  %30 = getelementptr inbounds nuw %struct.TriggerData, ptr %29, i32 0, i32 5
  %31 = load ptr, ptr %30, align 8
  %32 = getelementptr inbounds nuw %struct.Trigger, ptr %31, i32 0, i32 2
  %33 = load i32, ptr %32, align 8
  %34 = load ptr, ptr %8, align 8
  call void @fmgr_info(i32 noundef %33, ptr noundef %34)
  br label %35

35:                                               ; preds = %28, %5
  %36 = load ptr, ptr %9, align 8
  %37 = icmp ne ptr %36, null
  br i1 %37, label %38, label %43

38:                                               ; preds = %35
  %39 = load ptr, ptr %9, align 8
  %40 = load i32, ptr %7, align 4
  %41 = sext i32 %40 to i64
  %42 = getelementptr inbounds %struct.Instrumentation, ptr %39, i64 %41
  call void @InstrStartNode(ptr noundef %42)
  br label %43

43:                                               ; preds = %38, %35
  %44 = load ptr, ptr %10, align 8
  %45 = call ptr @MemoryContextSwitchTo(ptr noundef %44)
  store ptr %45, ptr %15, align 8
  br label %46

46:                                               ; preds = %43
  %47 = load ptr, ptr %8, align 8
  %48 = load ptr, ptr %12, align 8
  %49 = getelementptr inbounds nuw %struct.FunctionCallInfoBaseData, ptr %48, i32 0, i32 0
  store ptr %47, ptr %49, align 8
  %50 = load ptr, ptr %6, align 8
  %51 = load ptr, ptr %12, align 8
  %52 = getelementptr inbounds nuw %struct.FunctionCallInfoBaseData, ptr %51, i32 0, i32 1
  store ptr %50, ptr %52, align 8
  %53 = load ptr, ptr %12, align 8
  %54 = getelementptr inbounds nuw %struct.FunctionCallInfoBaseData, ptr %53, i32 0, i32 2
  store ptr null, ptr %54, align 8
  %55 = load ptr, ptr %12, align 8
  %56 = getelementptr inbounds nuw %struct.FunctionCallInfoBaseData, ptr %55, i32 0, i32 3
  store i32 0, ptr %56, align 8
  %57 = load ptr, ptr %12, align 8
  %58 = getelementptr inbounds nuw %struct.FunctionCallInfoBaseData, ptr %57, i32 0, i32 4
  store i8 0, ptr %58, align 4
  %59 = load ptr, ptr %12, align 8
  %60 = getelementptr inbounds nuw %struct.FunctionCallInfoBaseData, ptr %59, i32 0, i32 5
  store i16 0, ptr %60, align 2
  br label %61

61:                                               ; preds = %46
  br label %62

62:                                               ; preds = %61
  %63 = load ptr, ptr %12, align 8
  call void @pgstat_init_function_usage(ptr noundef %63, ptr noundef %13)
  %64 = load i32, ptr @MyTriggerDepth, align 4
  %65 = add i32 %64, 1
  store i32 %65, ptr @MyTriggerDepth, align 4
  br label %66

66:                                               ; preds = %62
  call void @llvm.lifetime.start.p0(i64 8, ptr %16) #12
  %67 = load ptr, ptr @PG_exception_stack, align 8
  store ptr %67, ptr %16, align 8
  call void @llvm.lifetime.start.p0(i64 8, ptr %17) #12
  %68 = load ptr, ptr @error_context_stack, align 8
  store ptr %68, ptr %17, align 8
  call void @llvm.lifetime.start.p0(i64 200, ptr %18) #12
  call void @llvm.lifetime.start.p0(i64 1, ptr %19) #12
  store i8 0, ptr %19, align 1
  %69 = getelementptr inbounds [1 x %struct.__jmp_buf_tag], ptr %18, i64 0, i64 0
  %70 = call i32 @__sigsetjmp(ptr noundef %69, i32 noundef 0) #15
  %71 = icmp eq i32 %70, 0
  br i1 %71, label %72, label %80

72:                                               ; preds = %66
  store ptr %18, ptr @PG_exception_stack, align 8
  %73 = load ptr, ptr %12, align 8
  %74 = getelementptr inbounds nuw %struct.FunctionCallInfoBaseData, ptr %73, i32 0, i32 0
  %75 = load ptr, ptr %74, align 8
  %76 = getelementptr inbounds nuw %struct.FmgrInfo, ptr %75, i32 0, i32 0
  %77 = load ptr, ptr %76, align 8
  %78 = load ptr, ptr %12, align 8
  %79 = call i64 %77(ptr noundef %78)
  store i64 %79, ptr %14, align 8
  br label %81

80:                                               ; preds = %66
  store i8 1, ptr %19, align 1
  br label %81

81:                                               ; preds = %80, %72
  %82 = load ptr, ptr %16, align 8
  store ptr %82, ptr @PG_exception_stack, align 8
  %83 = load ptr, ptr %17, align 8
  store ptr %83, ptr @error_context_stack, align 8
  %84 = load i32, ptr @MyTriggerDepth, align 4
  %85 = add i32 %84, -1
  store i32 %85, ptr @MyTriggerDepth, align 4
  %86 = load i8, ptr %19, align 1, !range !4, !noundef !5
  %87 = trunc i8 %86 to i1
  br i1 %87, label %88, label %89

88:                                               ; preds = %81
  call void @pg_re_throw() #16
  unreachable

89:                                               ; preds = %81
  %90 = load ptr, ptr %16, align 8
  store ptr %90, ptr @PG_exception_stack, align 8
  %91 = load ptr, ptr %17, align 8
  store ptr %91, ptr @error_context_stack, align 8
  call void @llvm.lifetime.end.p0(i64 1, ptr %19) #12
  call void @llvm.lifetime.end.p0(i64 200, ptr %18) #12
  call void @llvm.lifetime.end.p0(i64 8, ptr %17) #12
  call void @llvm.lifetime.end.p0(i64 8, ptr %16) #12
  br label %92

92:                                               ; preds = %89
  br label %93

93:                                               ; preds = %92
  call void @pgstat_end_function_usage(ptr noundef %13, i1 noundef zeroext true)
  %94 = load ptr, ptr %15, align 8
  %95 = call ptr @MemoryContextSwitchTo(ptr noundef %94)
  %96 = load ptr, ptr %12, align 8
  %97 = getelementptr inbounds nuw %struct.FunctionCallInfoBaseData, ptr %96, i32 0, i32 4
  %98 = load i8, ptr %97, align 4, !range !4, !noundef !5
  %99 = trunc i8 %98 to i1
  br i1 %99, label %100, label %117

100:                                              ; preds = %93
  br label %101

101:                                              ; preds = %100
  br i1 true, label %102, label %104

102:                                              ; preds = %101
  %103 = call zeroext i1 @errstart_cold(i32 noundef 21, ptr noundef null) #13
  br i1 %103, label %106, label %114

104:                                              ; preds = %101
  %105 = call zeroext i1 @errstart(i32 noundef 21, ptr noundef null)
  br i1 %105, label %106, label %114

106:                                              ; preds = %104, %102
  %107 = call i32 @errcode(i32 noundef 16908867)
  %108 = load ptr, ptr %12, align 8
  %109 = getelementptr inbounds nuw %struct.FunctionCallInfoBaseData, ptr %108, i32 0, i32 0
  %110 = load ptr, ptr %109, align 8
  %111 = getelementptr inbounds nuw %struct.FmgrInfo, ptr %110, i32 0, i32 1
  %112 = load i32, ptr %111, align 8
  %113 = call i32 (ptr, ...) @errmsg(ptr noundef @.str.73, i32 noundef %112)
  call void @errfinish(ptr noundef @.str.2, i32 noundef 2386, ptr noundef @__func__.ExecCallTriggerFunc)
  br label %114

114:                                              ; preds = %106, %104, %102
  unreachable

115:                                              ; No predecessors!
  br label %116

116:                                              ; preds = %115
  br label %117

117:                                              ; preds = %116, %93
  %118 = load ptr, ptr %9, align 8
  %119 = icmp ne ptr %118, null
  br i1 %119, label %120, label %125

120:                                              ; preds = %117
  %121 = load ptr, ptr %9, align 8
  %122 = load i32, ptr %7, align 4
  %123 = sext i32 %122 to i64
  %124 = getelementptr inbounds %struct.Instrumentation, ptr %121, i64 %123
  call void @InstrStopNode(ptr noundef %124, double noundef 1.000000e+00)
  br label %125

125:                                              ; preds = %120, %117
  %126 = load i64, ptr %14, align 8
  %127 = call ptr @DatumGetPointer(i64 noundef %126)
  call void @llvm.lifetime.end.p0(i64 8, ptr %15) #12
  call void @llvm.lifetime.end.p0(i64 8, ptr %14) #12
  call void @llvm.lifetime.end.p0(i64 32, ptr %13) #12
  call void @llvm.lifetime.end.p0(i64 8, ptr %12) #12
  call void @llvm.lifetime.end.p0(i64 32, ptr %11) #12
  ret ptr %127
}