; Function Attrs: nounwind uwtable
define internal fastcc ptr @ExecCallTriggerFunc(ptr noundef nonnull %0, i32 noundef %1, ptr noundef %2, ptr noundef %3, ptr noundef %4) unnamed_addr #0 {
  %6 = alloca %union.anon.2, align 8
  %7 = alloca %struct.PgStat_FunctionCallUsage, align 8
  %8 = alloca [1 x %struct.__jmp_buf_tag], align 16
  call void @llvm.lifetime.start.p0(i64 32, ptr nonnull %6) #16
  call void @llvm.lifetime.start.p0(i64 32, ptr nonnull %7) #16
  %9 = sext i32 %1 to i64
  %10 = getelementptr inbounds %struct.FmgrInfo, ptr %2, i64 %9
  %11 = getelementptr inbounds nuw i8, ptr %10, i64 8
  %12 = load i32, ptr %11, align 8
  %13 = icmp eq i32 %12, 0
  br i1 %13, label %14, label %19

14:                                               ; preds = %5
  %15 = getelementptr inbounds nuw i8, ptr %0, i64 32
  %16 = load ptr, ptr %15, align 8
  %17 = getelementptr inbounds nuw i8, ptr %16, i64 16
  %18 = load i32, ptr %17, align 8
  call void @fmgr_info(i32 noundef %18, ptr noundef nonnull %10) #16
  br label %19

19:                                               ; preds = %14, %5
  %.not = icmp eq ptr %3, null
  br i1 %.not, label %22, label %20

20:                                               ; preds = %19
  %21 = getelementptr inbounds %struct.Instrumentation, ptr %3, i64 %9
  call void @InstrStartNode(ptr noundef nonnull %21) #16
  br label %22

22:                                               ; preds = %20, %19
  %23 = load ptr, ptr @CurrentMemoryContext, align 8
  store ptr %4, ptr @CurrentMemoryContext, align 8
  store ptr %10, ptr %6, align 8
  %24 = getelementptr inbounds nuw i8, ptr %6, i64 8
  store ptr %0, ptr %24, align 8
  %25 = getelementptr inbounds nuw i8, ptr %6, i64 16
  store ptr null, ptr %25, align 8
  %26 = getelementptr inbounds nuw i8, ptr %6, i64 24
  store i32 0, ptr %26, align 8
  %27 = getelementptr inbounds nuw i8, ptr %6, i64 28
  store i8 0, ptr %27, align 4
  %28 = getelementptr inbounds nuw i8, ptr %6, i64 30
  store i16 0, ptr %28, align 2
  call void @pgstat_init_function_usage(ptr noundef nonnull %6, ptr noundef nonnull %7) #16
  %29 = load i32, ptr @MyTriggerDepth, align 4
  %30 = add i32 %29, 1
  store i32 %30, ptr @MyTriggerDepth, align 4
  %31 = load ptr, ptr @PG_exception_stack, align 8
  %32 = load ptr, ptr @error_context_stack, align 8
  call void @llvm.lifetime.start.p0(i64 200, ptr nonnull %8) #16
  %33 = call i32 @__sigsetjmp(ptr noundef nonnull %8, i32 noundef 0) #19
  %.not33 = icmp eq i32 %33, 0
  br i1 %.not33, label %37, label %34

34:                                               ; preds = %22
  store ptr %31, ptr @PG_exception_stack, align 8
  store ptr %32, ptr @error_context_stack, align 8
  %35 = load i32, ptr @MyTriggerDepth, align 4
  %36 = add i32 %35, -1
  store i32 %36, ptr @MyTriggerDepth, align 4
  call void @pg_re_throw() #20
  unreachable

37:                                               ; preds = %22
  store ptr %8, ptr @PG_exception_stack, align 8
  %38 = load ptr, ptr %6, align 8
  %39 = load ptr, ptr %38, align 8
  %40 = call i64 %39(ptr noundef nonnull %6) #16
  %41 = load i32, ptr @MyTriggerDepth, align 4
  %42 = add i32 %41, -1
  store i32 %42, ptr @MyTriggerDepth, align 4
  store ptr %31, ptr @PG_exception_stack, align 8
  store ptr %32, ptr @error_context_stack, align 8
  call void @llvm.lifetime.end.p0(i64 200, ptr nonnull %8) #16
  call void @pgstat_end_function_usage(ptr noundef nonnull %7, i1 noundef zeroext true) #16
  store ptr %23, ptr @CurrentMemoryContext, align 8
  %43 = load i8, ptr %27, align 4, !range !4, !noundef !5
  %44 = trunc nuw i8 %43 to i1
  br i1 %44, label %45, label %52

45:                                               ; preds = %37
  %46 = call zeroext i1 @errstart_cold(i32 noundef 21, ptr noundef null) #17
  call void @llvm.assume(i1 %46)
  %47 = call i32 @errcode(i32 noundef 16908867) #16
  %48 = load ptr, ptr %6, align 8
  %49 = getelementptr inbounds nuw i8, ptr %48, i64 8
  %50 = load i32, ptr %49, align 8
  %51 = call i32 (ptr, ...) @errmsg(ptr noundef nonnull @.str.73, i32 noundef %50) #16
  call void @errfinish(ptr noundef nonnull @.str.2, i32 noundef 2386, ptr noundef nonnull @__func__.ExecCallTriggerFunc) #16
  unreachable

52:                                               ; preds = %37
  br i1 %.not, label %55, label %53

53:                                               ; preds = %52
  %54 = getelementptr inbounds %struct.Instrumentation, ptr %3, i64 %9
  call void @InstrStopNode(ptr noundef nonnull %54, double noundef 1.000000e+00) #16
  br label %55

55:                                               ; preds = %53, %52
  %56 = inttoptr i64 %40 to ptr
  call void @llvm.lifetime.end.p0(i64 32, ptr nonnull %7) #16
  call void @llvm.lifetime.end.p0(i64 32, ptr nonnull %6) #16
  ret ptr %56
}